; Function Attrs: nounwind uwtable
define internal i32 @StartStream(ptr noundef %0) #2 {
  %2 = getelementptr inbounds nuw i8, ptr %0, i64 104
  tail call void @PaUtil_ResetBufferProcessor(ptr noundef nonnull %2) #25
  %3 = getelementptr inbounds nuw i8, ptr %0, i64 580
  store volatile i32 1, ptr %3, align 4, !tbaa !124
  %4 = getelementptr inbounds nuw i8, ptr %0, i64 548
  %5 = load i32, ptr %4, align 4, !tbaa !45
  %.not = icmp eq i32 %5, 0
  br i1 %.not, label %12, label %6

6:                                                ; preds = %1
  %7 = getelementptr inbounds nuw i8, ptr %0, i64 408
  %8 = getelementptr inbounds nuw i8, ptr %0, i64 556
  %9 = load i32, ptr %8, align 4, !tbaa !125
  %10 = tail call i32 @PaUnixThread_New(ptr noundef nonnull %7, ptr noundef nonnull @CallbackThreadFunc, ptr noundef nonnull %0, double noundef 1.000000e+00, i32 noundef %9) #25
  store i32 %10, ptr @paUtilErr_, align 4, !tbaa !3
  %11 = icmp slt i32 %10, 0
  br i1 %11, label %16, label %15, !prof !9

12:                                               ; preds = %1
  %13 = tail call fastcc i32 @AlsaStart(ptr noundef nonnull %0)
  store i32 %13, ptr @paUtilErr_, align 4, !tbaa !3
  %14 = icmp slt i32 %13, 0
  br i1 %14, label %16, label %15, !prof !9

15:                                               ; preds = %12, %6, %16
  %.1 = phi i32 [ %.0, %16 ], [ 0, %6 ], [ 0, %12 ]
  ret i32 %.1

16:                                               ; preds = %12, %6
  %.str.162.sink = phi ptr [ @.str.162, %6 ], [ @.str.163, %12 ]
  tail call void (ptr, ...) @PaUtil_DebugPrint(ptr noundef nonnull %.str.162.sink) #25
  %.0 = load i32, ptr @paUtilErr_, align 4, !tbaa !3
  store volatile i32 0, ptr %3, align 4, !tbaa !124
  br label %15
}